; Function Attrs: mustprogress uwtable
define void @_ZNK23ProfileTreeEditDelegate13setEditorDataEP7QWidgetRK11QModelIndex(ptr nocapture noundef nonnull readnone align 8 dereferenceable(48) %0, ptr noundef %1, ptr noundef nonnull align 8 dereferenceable(24) %2) unnamed_addr #0 align 2 personality ptr @__gxx_personality_v0 {
  %4 = alloca %class.QString, align 8
  %5 = alloca %class.QVariant, align 8
  %6 = tail call noundef ptr @_ZNK11QMetaObject4castEPK7QObject(ptr noundef nonnull align 8 dereferenceable(56) @_ZN9QLineEdit16staticMetaObjectE, ptr noundef %1)
  %.not = icmp eq ptr %6, null
  br i1 %.not, label %31, label %7

7:                                                ; preds = %3
  %8 = tail call noundef ptr @_ZNK11QMetaObject4castEPK7QObject(ptr noundef nonnull align 8 dereferenceable(56) @_ZN9QLineEdit16staticMetaObjectE, ptr noundef %1)
  tail call void @llvm.experimental.noalias.scope.decl(metadata !7)
  %9 = getelementptr inbounds i8, ptr %2, i64 16
  %10 = load ptr, ptr %9, align 8, !noalias !7
  %.not.i = icmp eq ptr %10, null
  br i1 %.not.i, label %15, label %11

11:                                               ; preds = %7
  %12 = load ptr, ptr %10, align 8, !noalias !7
  %13 = getelementptr inbounds i8, ptr %12, i64 144
  %14 = load ptr, ptr %13, align 8, !noalias !7
  call void %14(ptr dead_on_unwind nonnull writable sret(%class.QVariant) align 8 %5, ptr noundef nonnull align 8 dereferenceable(16) %10, ptr noundef nonnull align 8 dereferenceable(24) %2, i32 noundef 0)
  br label %_ZNK11QModelIndex4dataEi.exit

15:                                               ; preds = %7
  call void @llvm.memset.p0.i64(ptr noundef nonnull align 8 dereferenceable(24) %5, i8 0, i64 24, i1 false), !alias.scope !7
  %16 = getelementptr inbounds i8, ptr %5, i64 24
  store i64 2, ptr %16, align 8, !alias.scope !7
  br label %_ZNK11QModelIndex4dataEi.exit

_ZNK11QModelIndex4dataEi.exit:                    ; preds = %11, %15
  invoke void @_ZNK8QVariant8toStringEv(ptr dead_on_unwind nonnull writable sret(%class.QString) align 8 %4, ptr noundef nonnull align 8 dereferenceable(32) %5)
          to label %17 unwind label %23

17:                                               ; preds = %_ZNK11QModelIndex4dataEi.exit
  invoke void @_ZN9QLineEdit7setTextERK7QString(ptr noundef nonnull align 8 dereferenceable(40) %8, ptr noundef nonnull align 8 dereferenceable(24) %4)
          to label %18 unwind label %25

18:                                               ; preds = %17
  %19 = load ptr, ptr %4, align 8
  %.not.i.i.i = icmp eq ptr %19, null
  br i1 %.not.i.i.i, label %_ZN7QStringD2Ev.exit, label %_ZN17QArrayDataPointerIDsE5derefEv.exit.i.i

_ZN17QArrayDataPointerIDsE5derefEv.exit.i.i:      ; preds = %18
  %20 = atomicrmw sub ptr %19, i32 1 seq_cst, align 4
  %.not.i.i = icmp eq i32 %20, 1
  br i1 %.not.i.i, label %21, label %_ZN7QStringD2Ev.exit

21:                                               ; preds = %_ZN17QArrayDataPointerIDsE5derefEv.exit.i.i
  %22 = load ptr, ptr %4, align 8
  call void @_ZN10QArrayData10deallocateEPS_xx(ptr noundef %22, i64 noundef 2, i64 noundef 8) #10
  br label %_ZN7QStringD2Ev.exit

_ZN7QStringD2Ev.exit:                             ; preds = %18, %_ZN17QArrayDataPointerIDsE5derefEv.exit.i.i, %21
  call void @_ZN8QVariantD1Ev(ptr noundef nonnull align 8 dereferenceable(32) %5) #10
  br label %31

23:                                               ; preds = %_ZNK11QModelIndex4dataEi.exit
  %24 = landingpad { ptr, i32 }
          cleanup
  br label %_ZN7QStringD2Ev.exit10

25:                                               ; preds = %17
  %26 = landingpad { ptr, i32 }
          cleanup
  %27 = load ptr, ptr %4, align 8
  %.not.i.i.i7 = icmp eq ptr %27, null
  br i1 %.not.i.i.i7, label %_ZN7QStringD2Ev.exit10, label %_ZN17QArrayDataPointerIDsE5derefEv.exit.i.i8

_ZN17QArrayDataPointerIDsE5derefEv.exit.i.i8:     ; preds = %25
  %28 = atomicrmw sub ptr %27, i32 1 seq_cst, align 4
  %.not.i.i9 = icmp eq i32 %28, 1
  br i1 %.not.i.i9, label %29, label %_ZN7QStringD2Ev.exit10

29:                                               ; preds = %_ZN17QArrayDataPointerIDsE5derefEv.exit.i.i8
  %30 = load ptr, ptr %4, align 8
  call void @_ZN10QArrayData10deallocateEPS_xx(ptr noundef %30, i64 noundef 2, i64 noundef 8) #10
  br label %_ZN7QStringD2Ev.exit10

_ZN7QStringD2Ev.exit10:                           ; preds = %29, %_ZN17QArrayDataPointerIDsE5derefEv.exit.i.i8, %25, %23
  %.pn = phi { ptr, i32 } [ %24, %23 ], [ %26, %25 ], [ %26, %_ZN17QArrayDataPointerIDsE5derefEv.exit.i.i8 ], [ %26, %29 ]
  call void @_ZN8QVariantD1Ev(ptr noundef nonnull align 8 dereferenceable(32) %5) #10
  resume { ptr, i32 } %.pn

31:                                               ; preds = %_ZN7QStringD2Ev.exit, %3
  ret void
}